target datalayout = "e-m:e-p270:32:32-p271:32:32-p272:64:64-i64:64-i128:128-f80:128-n8:16:32:64-S128"
target triple = "x86_64-pc-linux-gnu"

%struct.AVFormatContext = type { ptr, ptr, ptr, ptr, ptr, i32, i32, ptr, i32, ptr, i32, ptr, ptr, i64, i64, i64, i32, i32, i32, i64, i64, ptr, i32, i32, ptr, i32, i32, i32, i32, ptr, i64, i32, i32, %struct.AVIOInterruptCB, i32, i32, i32, i32, i64, i32, i32, i32, i32, i32, i32, i32, i32, i32, i32, i32, i32, i64, i32, i32, i32, i32, i32, ptr, ptr, ptr, ptr, i32, ptr, ptr, ptr, ptr, i32, ptr, ptr, i64, ptr, ptr, ptr, i64 }
%struct.AVIOInterruptCB = type { ptr, ptr }
%struct.AVPacket = type { ptr, i64, i64, ptr, i32, i32, i32, ptr, i32, i64, i64, ptr, ptr, %struct.AVRational }
%struct.AVRational = type { i32, i32 }

@header = internal constant [24 x i8] c"\00\00\00\01gB\00\1E\A6\80\B0~@\00\00\00\01h\CE8\80\00\00\00", align 16

; Function Attrs: alwaysinline nounwind uwtable
define internal i64 @avio_tell(ptr noundef %0) #3 {
  %2 = alloca ptr, align 8
  store ptr %0, ptr %2, align 8, !tbaa !67
  %3 = load ptr, ptr %2, align 8, !tbaa !67
  %4 = call i64 @avio_seek(ptr noundef %3, i64 noundef 0, i32 noundef 1)
  ret i64 %4
}

; Function Attrs: nounwind uwtable
define internal i32 @sdr2_read_packet(ptr noundef %0, ptr noundef %1) #0 {
  %3 = alloca i32, align 4
  %4 = alloca ptr, align 8
  %5 = alloca ptr, align 8
  %6 = alloca i64, align 8
  %7 = alloca i32, align 4
  %8 = alloca i32, align 4
  %9 = alloca i32, align 4
  %10 = alloca i32, align 4
  %11 = alloca i32, align 4
  store ptr %0, ptr %4, align 8, !tbaa !14
  store ptr %1, ptr %5, align 8, !tbaa !59
  call void @llvm.lifetime.start.p0(i64 8, ptr %6) #5
  call void @llvm.lifetime.start.p0(i64 4, ptr %7) #5
  call void @llvm.lifetime.start.p0(i64 4, ptr %8) #5
  call void @llvm.lifetime.start.p0(i64 4, ptr %9) #5
  store i32 0, ptr %9, align 4, !tbaa !61
  call void @llvm.lifetime.start.p0(i64 4, ptr %10) #5
  %12 = load ptr, ptr %4, align 8, !tbaa !14
  %13 = getelementptr inbounds nuw %struct.AVFormatContext, ptr %12, i32 0, i32 4
  %14 = load ptr, ptr %13, align 8, !tbaa !18
  %15 = call i64 @avio_tell(ptr noundef %14)
  store i64 %15, ptr %6, align 8, !tbaa !62
  %16 = load ptr, ptr %4, align 8, !tbaa !14
  %17 = getelementptr inbounds nuw %struct.AVFormatContext, ptr %16, i32 0, i32 4
  %18 = load ptr, ptr %17, align 8, !tbaa !18
  %19 = call i32 @avio_rl32(ptr noundef %18)
  store i32 %19, ptr %8, align 4, !tbaa !61
  %20 = load ptr, ptr %4, align 8, !tbaa !14
  %21 = getelementptr inbounds nuw %struct.AVFormatContext, ptr %20, i32 0, i32 4
  %22 = load ptr, ptr %21, align 8, !tbaa !18
  %23 = call i64 @avio_skip(ptr noundef %22, i64 noundef 4)
  %24 = load ptr, ptr %4, align 8, !tbaa !14
  %25 = getelementptr inbounds nuw %struct.AVFormatContext, ptr %24, i32 0, i32 4
  %26 = load ptr, ptr %25, align 8, !tbaa !18
  %27 = call i32 @avio_rl32(ptr noundef %26)
  store i32 %27, ptr %7, align 4, !tbaa !61
  %28 = load i32, ptr %7, align 4, !tbaa !61
  %29 = icmp ule i32 %28, 52
  br i1 %29, label %30, label %31

30:                                               ; preds = %2
  store i32 -1094995529, ptr %3, align 4
  store i32 1, ptr %11, align 4
  br label %106

31:                                               ; preds = %2
  %32 = load ptr, ptr %4, align 8, !tbaa !14
  %33 = getelementptr inbounds nuw %struct.AVFormatContext, ptr %32, i32 0, i32 4
  %34 = load ptr, ptr %33, align 8, !tbaa !18
  %35 = call i64 @avio_skip(ptr noundef %34, i64 noundef 6)
  %36 = load ptr, ptr %4, align 8, !tbaa !14
  %37 = getelementptr inbounds nuw %struct.AVFormatContext, ptr %36, i32 0, i32 4
  %38 = load ptr, ptr %37, align 8, !tbaa !18
  %39 = call i32 @avio_rl32(ptr noundef %38)
  store i32 %39, ptr %10, align 4, !tbaa !61
  %40 = load ptr, ptr %4, align 8, !tbaa !14
  %41 = getelementptr inbounds nuw %struct.AVFormatContext, ptr %40, i32 0, i32 4
  %42 = load ptr, ptr %41, align 8, !tbaa !18
  %43 = call i64 @avio_skip(ptr noundef %42, i64 noundef 30)
  %44 = load i64, ptr %6, align 8, !tbaa !62
  %45 = icmp eq i64 %44, 168
  br i1 %45, label %46, label %77

46:                                               ; preds = %31
  %47 = load ptr, ptr %5, align 8, !tbaa !59
  %48 = load i32, ptr %7, align 4, !tbaa !61
  %49 = sub i32 %48, 52
  %50 = add i32 %49, 24
  %51 = call i32 @av_new_packet(ptr noundef %47, i32 noundef %50)
  store i32 %51, ptr %9, align 4, !tbaa !61
  %52 = icmp slt i32 %51, 0
  br i1 %52, label %53, label %55

53:                                               ; preds = %46
  %54 = load i32, ptr %9, align 4, !tbaa !61
  store i32 %54, ptr %3, align 4
  store i32 1, ptr %11, align 4
  br label %106

55:                                               ; preds = %46
  %56 = load ptr, ptr %5, align 8, !tbaa !59
  %57 = getelementptr inbounds nuw %struct.AVPacket, ptr %56, i32 0, i32 3
  %58 = load ptr, ptr %57, align 8, !tbaa !63
  call void @llvm.memcpy.p0.p0.i64(ptr align 1 %58, ptr align 16 @header, i64 24, i1 false)
  %59 = load ptr, ptr %4, align 8, !tbaa !14
  %60 = getelementptr inbounds nuw %struct.AVFormatContext, ptr %59, i32 0, i32 4
  %61 = load ptr, ptr %60, align 8, !tbaa !18
  %62 = load ptr, ptr %5, align 8, !tbaa !59
  %63 = getelementptr inbounds nuw %struct.AVPacket, ptr %62, i32 0, i32 3
  %64 = load ptr, ptr %63, align 8, !tbaa !63
  %65 = getelementptr inbounds i8, ptr %64, i64 24
  %66 = load i32, ptr %7, align 4, !tbaa !61
  %67 = sub i32 %66, 52
  %68 = call i32 @avio_read(ptr noundef %61, ptr noundef %65, i32 noundef %67)
  store i32 %68, ptr %9, align 4, !tbaa !61
  %69 = load i32, ptr %9, align 4, !tbaa !61
  %70 = icmp slt i32 %69, 0
  br i1 %70, label %71, label %73

71:                                               ; preds = %55
  %72 = load i32, ptr %9, align 4, !tbaa !61
  store i32 %72, ptr %3, align 4
  store i32 1, ptr %11, align 4
  br label %106

73:                                               ; preds = %55
  %74 = load ptr, ptr %5, align 8, !tbaa !59
  %75 = load i32, ptr %9, align 4, !tbaa !61
  %76 = add nsw i32 %75, 24
  call void @av_shrink_packet(ptr noundef %74, i32 noundef %76)
  br label %85

77:                                               ; preds = %31
  %78 = load ptr, ptr %4, align 8, !tbaa !14
  %79 = getelementptr inbounds nuw %struct.AVFormatContext, ptr %78, i32 0, i32 4
  %80 = load ptr, ptr %79, align 8, !tbaa !18
  %81 = load ptr, ptr %5, align 8, !tbaa !59
  %82 = load i32, ptr %7, align 4, !tbaa !61
  %83 = sub i32 %82, 52
  %84 = call i32 @av_get_packet(ptr noundef %80, ptr noundef %81, i32 noundef %83)
  store i32 %84, ptr %9, align 4, !tbaa !61
  br label %85

85:                                               ; preds = %77, %73
  %86 = load i32, ptr %10, align 4, !tbaa !61
  %87 = icmp ne i32 %86, 0
  %88 = xor i1 %87, true
  %89 = xor i1 %88, true
  %90 = zext i1 %89 to i32
  %91 = load ptr, ptr %5, align 8, !tbaa !59
  %92 = getelementptr inbounds nuw %struct.AVPacket, ptr %91, i32 0, i32 5
  store i32 %90, ptr %92, align 4, !tbaa !64
  %93 = load i64, ptr %6, align 8, !tbaa !62
  %94 = load ptr, ptr %5, align 8, !tbaa !59
  %95 = getelementptr inbounds nuw %struct.AVPacket, ptr %94, i32 0, i32 10
  store i64 %93, ptr %95, align 8, !tbaa !65
  %96 = load i32, ptr %8, align 4, !tbaa !61
  %97 = and i32 %96, 4096
  %98 = icmp ne i32 %97, 0
  br i1 %98, label %99, label %104

99:                                               ; preds = %85
  %100 = load ptr, ptr %5, align 8, !tbaa !59
  %101 = getelementptr inbounds nuw %struct.AVPacket, ptr %100, i32 0, i32 6
  %102 = load i32, ptr %101, align 8, !tbaa !66
  %103 = or i32 %102, 1
  store i32 %103, ptr %101, align 8, !tbaa !66
  br label %104

104:                                              ; preds = %99, %85
  %105 = load i32, ptr %9, align 4, !tbaa !61
  store i32 %105, ptr %3, align 4
  store i32 1, ptr %11, align 4
  br label %106

106:                                              ; preds = %104, %71, %53, %30
  call void @llvm.lifetime.end.p0(i64 4, ptr %10) #5
  call void @llvm.lifetime.end.p0(i64 4, ptr %9) #5
  call void @llvm.lifetime.end.p0(i64 4, ptr %8) #5
  call void @llvm.lifetime.end.p0(i64 4, ptr %7) #5
  call void @llvm.lifetime.end.p0(i64 8, ptr %6) #5
  %107 = load i32, ptr %3, align 4
  ret i32 %107
}