; Function Attrs: nounwind uwtable
define internal i32 @sdr2_read_packet(ptr noundef readonly captures(none) %0, ptr noundef %1) #1 {
  %3 = getelementptr inbounds nuw i8, ptr %0, i64 32
  %4 = load ptr, ptr %3, align 8, !tbaa !12
  %5 = tail call i64 @avio_seek(ptr noundef %4, i64 noundef 0, i32 noundef 1) #4
  %6 = load ptr, ptr %3, align 8, !tbaa !12
  %7 = tail call i32 @avio_rl32(ptr noundef %6) #4
  %8 = load ptr, ptr %3, align 8, !tbaa !12
  %9 = tail call i64 @avio_skip(ptr noundef %8, i64 noundef 4) #4
  %10 = load ptr, ptr %3, align 8, !tbaa !12
  %11 = tail call i32 @avio_rl32(ptr noundef %10) #4
  %12 = icmp ult i32 %11, 53
  br i1 %12, label %50, label %13

13:                                               ; preds = %2
  %14 = load ptr, ptr %3, align 8, !tbaa !12
  %15 = tail call i64 @avio_skip(ptr noundef %14, i64 noundef 6) #4
  %16 = load ptr, ptr %3, align 8, !tbaa !12
  %17 = tail call i32 @avio_rl32(ptr noundef %16) #4
  %18 = load ptr, ptr %3, align 8, !tbaa !12
  %19 = tail call i64 @avio_skip(ptr noundef %18, i64 noundef 30) #4
  %20 = icmp eq i64 %5, 168
  br i1 %20, label %21, label %36

21:                                               ; preds = %13
  %22 = add i32 %11, -28
  %23 = tail call i32 @av_new_packet(ptr noundef %1, i32 noundef %22) #4
  %24 = icmp slt i32 %23, 0
  br i1 %24, label %50, label %25

25:                                               ; preds = %21
  %26 = add i32 %11, -52
  %27 = getelementptr inbounds nuw i8, ptr %1, i64 24
  %28 = load ptr, ptr %27, align 8, !tbaa !54
  tail call void @llvm.memcpy.p0.p0.i64(ptr noundef nonnull align 1 dereferenceable(24) %28, ptr noundef nonnull align 16 dereferenceable(24) @header, i64 24, i1 false)
  %29 = load ptr, ptr %3, align 8, !tbaa !12
  %30 = load ptr, ptr %27, align 8, !tbaa !54
  %31 = getelementptr inbounds nuw i8, ptr %30, i64 24
  %32 = tail call i32 @avio_read(ptr noundef %29, ptr noundef nonnull %31, i32 noundef %26) #4
  %33 = icmp slt i32 %32, 0
  br i1 %33, label %50, label %34

34:                                               ; preds = %25
  %35 = add nuw nsw i32 %32, 24
  tail call void @av_shrink_packet(ptr noundef nonnull %1, i32 noundef %35) #4
  br label %40

36:                                               ; preds = %13
  %37 = load ptr, ptr %3, align 8, !tbaa !12
  %38 = add i32 %11, -52
  %39 = tail call i32 @av_get_packet(ptr noundef %37, ptr noundef %1, i32 noundef %38) #4
  br label %40

40:                                               ; preds = %36, %34
  %.030 = phi i32 [ %32, %34 ], [ %39, %36 ]
  %41 = icmp ne i32 %17, 0
  %42 = zext i1 %41 to i32
  %43 = getelementptr inbounds nuw i8, ptr %1, i64 36
  store i32 %42, ptr %43, align 4, !tbaa !55
  %44 = getelementptr inbounds nuw i8, ptr %1, i64 72
  store i64 %5, ptr %44, align 8, !tbaa !56
  %45 = and i32 %7, 4096
  %.not = icmp eq i32 %45, 0
  br i1 %.not, label %50, label %46

46:                                               ; preds = %40
  %47 = getelementptr inbounds nuw i8, ptr %1, i64 40
  %48 = load i32, ptr %47, align 8, !tbaa !57
  %49 = or i32 %48, 1
  store i32 %49, ptr %47, align 8, !tbaa !57
  br label %50

50:                                               ; preds = %40, %46, %25, %21, %2
  %.0 = phi i32 [ -1094995529, %2 ], [ %23, %21 ], [ %32, %25 ], [ %.030, %46 ], [ %.030, %40 ]
  ret i32 %.0
}